Certificate:
    Data:
        Version: 3 (0x2)
        Serial Number: 2 (0x2)
        Signature Algorithm: sha1WithRSAEncryption
        Issuer: C=CN, ST=Beijing, L=Beijing, O=pynojo development team, CN=pynojo-ca/emailAddress=pynojo-discuss@googlegroups.com
        Validity
            Not Before: Mar  2 17:11:21 2012 GMT
            Not After : Feb 28 17:11:21 2022 GMT
        Subject: C=CN, ST=Beijing, L=Beijing, O=pynojo development team, CN=pynojo-oj-judger/emailAddress=pynojo-discuss@googlegroups.com
        Subject Public Key Info:
            Public Key Algorithm: rsaEncryption
                Public-Key: (1024 bit)
                Modulus:
                    00:c0:80:fa:26:ac:55:dd:d2:ee:ba:27:bf:58:36:
                    35:30:65:d2:0f:d1:77:94:c3:75:dd:b3:4c:4c:64:
                    5b:17:7b:0f:0a:4e:b2:32:12:50:f4:73:e2:dd:c5:
                    58:4e:b0:80:57:db:4d:ff:c0:0e:c4:9c:8b:22:04:
                    ab:ea:1b:d0:c4:08:c8:a2:aa:c8:c4:02:ab:a5:a2:
                    4b:f3:a9:7d:13:f1:b6:11:c9:b1:93:ef:ec:84:aa:
                    a8:51:47:58:67:c9:f2:0f:57:d6:c4:69:15:54:4c:
                    43:42:df:a8:43:96:43:64:1c:0d:e0:3f:6a:3f:70:
                    b5:a5:df:be:e6:52:e0:c5:29
                Exponent: 65537 (0x10001)
        X509v3 extensions:
            X509v3 Basic Constraints: 
                CA:FALSE
            Netscape Cert Type: 
                SSL Server
            Netscape Comment: 
                Easy-RSA Generated Server Certificate
            X509v3 Subject Key Identifier: 
                34:0E:F5:84:B7:5F:23:8C:BA:33:33:7B:13:DF:1F:DA:C3:0F:D0:74
            X509v3 Authority Key Identifier: 
                keyid:B5:7B:0F:15:76:78:35:93:0E:BE:25:87:86:BF:FE:D2:F2:4B:30:76
                DirName:/C=CN/ST=Beijing/L=Beijing/O=pynojo development team/CN=pynojo-ca/emailAddress=pynojo-discuss@googlegroups.com
                serial:9F:29:7C:7B:57:2B:04:E1

            X509v3 Extended Key Usage: 
                TLS Web Server Authentication
            X509v3 Key Usage: 
                Digital Signature, Key Encipherment
    Signature Algorithm: sha1WithRSAEncryption
        a0:e1:42:ce:c0:2e:01:bc:be:22:56:b2:6a:5b:ab:93:08:91:
        46:32:39:66:dc:3f:f5:02:97:18:78:71:d3:b0:7f:86:99:a8:
        29:2f:fe:ae:24:b7:b3:c9:12:2c:ef:9c:8d:94:68:44:50:83:
        d6:0a:c6:17:5f:0a:af:4a:f1:ac:bf:1f:2c:af:89:7c:56:ba:
        e2:c8:a3:c8:6a:79:38:37:a7:a0:a2:0c:9d:e1:8f:4e:23:de:
        53:90:33:7d:b4:9f:10:31:b0:f0:ee:58:dd:b1:e9:29:51:59:
        f0:d3:e9:84:f9:bf:d9:47:f7:99:a2:69:18:b8:a0:62:5a:02:
        8d:8c
-----BEGIN CERTIFICATE-----
MIIEFzCCA4CgAwIBAgIBAjANBgkqhkiG9w0BAQUFADCBlzELMAkGA1UEBhMCQ04x
EDAOBgNVBAgTB0JlaWppbmcxEDAOBgNVBAcTB0JlaWppbmcxIDAeBgNVBAoTF3B5
bm9qbyBkZXZlbG9wbWVudCB0ZWFtMRIwEAYDVQQDEwlweW5vam8tY2ExLjAsBgkq
hkiG9w0BCQEWH3B5bm9qby1kaXNjdXNzQGdvb2dsZWdyb3Vwcy5jb20wHhcNMTIw
MzAyMTcxMTIxWhcNMjIwMjI4MTcxMTIxWjCBnjELMAkGA1UEBhMCQ04xEDAOBgNV
BAgTB0JlaWppbmcxEDAOBgNVBAcTB0JlaWppbmcxIDAeBgNVBAoTF3B5bm9qbyBk
ZXZlbG9wbWVudCB0ZWFtMRkwFwYDVQQDExBweW5vam8tb2otanVkZ2VyMS4wLAYJ
KoZIhvcNAQkBFh9weW5vam8tZGlzY3Vzc0Bnb29nbGVncm91cHMuY29tMIGfMA0G
CSqGSIb3DQEBAQUAA4GNADCBiQKBgQDAgPomrFXd0u66J79YNjUwZdIP0XeUw3Xd
s0xMZFsXew8KTrIyElD0c+LdxVhOsIBX203/wA7EnIsiBKvqG9DECMiiqsjEAqul
okvzqX0T8bYRybGT7+yEqqhRR1hnyfIPV9bEaRVUTENC36hDlkNkHA3gP2o/cLWl
377mUuDFKQIDAQABo4IBaDCCAWQwCQYDVR0TBAIwADARBglghkgBhvhCAQEEBAMC
BkAwNAYJYIZIAYb4QgENBCcWJUVhc3ktUlNBIEdlbmVyYXRlZCBTZXJ2ZXIgQ2Vy
dGlmaWNhdGUwHQYDVR0OBBYEFDQO9YS3XyOMujMzexPfH9rDD9B0MIHMBgNVHSME
gcQwgcGAFLV7DxV2eDWTDr4lh4a//tLySzB2oYGdpIGaMIGXMQswCQYDVQQGEwJD
TjEQMA4GA1UECBMHQmVpamluZzEQMA4GA1UEBxMHQmVpamluZzEgMB4GA1UEChMX
cHlub2pvIGRldmVsb3BtZW50IHRlYW0xEjAQBgNVBAMTCXB5bm9qby1jYTEuMCwG
CSqGSIb3DQEJARYfcHlub2pvLWRpc2N1c3NAZ29vZ2xlZ3JvdXBzLmNvbYIJAJ8p
fHtXKwThMBMGA1UdJQQMMAoGCCsGAQUFBwMBMAsGA1UdDwQEAwIFoDANBgkqhkiG
9w0BAQUFAAOBgQCg4ULOwC4BvL4iVrJqW6uTCJFGMjlm3D/1ApcYeHHTsH+Gmagp
L/6uJLezyRIs75yNlGhEUIPWCsYXXwqvSvGsvx8sr4l8VrriyKPIank4N6egogyd
4Y9OI95TkDN9tJ8QMbDw7ljdsekpUVnw0+mE+b/ZR/eZomkYuKBiWgKNjA==
-----END CERTIFICATE-----
