Certificate:
    Data:
        Version: 3 (0x2)
        Serial Number: 3 (0x3)
        Signature Algorithm: sha1WithRSAEncryption
        Issuer: C=CN, ST=Beijing, L=Beijing, O=pynojo development team, CN=pynojo-ca/emailAddress=pynojo-discuss@googlegroups.com
        Validity
            Not Before: Mar  2 17:11:21 2012 GMT
            Not After : Feb 28 17:11:21 2022 GMT
        Subject: C=CN, ST=Beijing, L=Beijing, O=pynojo development team, CN=pynojo-server-1/emailAddress=pynojo-discuss@googlegroups.com
        Subject Public Key Info:
            Public Key Algorithm: rsaEncryption
                Public-Key: (1024 bit)
                Modulus:
                    00:c1:93:cb:87:9d:73:f8:51:71:46:09:b1:4f:23:
                    5c:1a:67:f4:d9:bb:7d:79:95:18:34:17:60:e9:f5:
                    c5:cc:26:dc:74:2f:0b:b3:81:25:16:5b:77:0b:76:
                    94:8f:7e:aa:8a:59:b7:18:b7:3f:5c:9d:f3:18:84:
                    e2:20:d7:de:85:4c:6f:cc:39:19:ef:7c:25:a6:10:
                    99:fe:e2:ae:42:70:b6:e3:fd:4e:2e:12:0c:49:90:
                    b1:ea:93:cb:6f:f2:e0:6d:90:43:3c:10:1d:44:e1:
                    d9:65:95:67:4d:64:9e:f2:d2:37:7f:f4:77:e7:44:
                    8e:45:a6:9f:6a:e4:03:23:b7
                Exponent: 65537 (0x10001)
        X509v3 extensions:
            X509v3 Basic Constraints: 
                CA:FALSE
            Netscape Cert Type: 
                SSL Server
            Netscape Comment: 
                Easy-RSA Generated Server Certificate
            X509v3 Subject Key Identifier: 
                C8:58:7C:87:C6:B5:A0:8B:0D:F1:5F:EA:2F:24:4E:C6:FC:DF:43:DF
            X509v3 Authority Key Identifier: 
                keyid:B5:7B:0F:15:76:78:35:93:0E:BE:25:87:86:BF:FE:D2:F2:4B:30:76
                DirName:/C=CN/ST=Beijing/L=Beijing/O=pynojo development team/CN=pynojo-ca/emailAddress=pynojo-discuss@googlegroups.com
                serial:9F:29:7C:7B:57:2B:04:E1

            X509v3 Extended Key Usage: 
                TLS Web Server Authentication
            X509v3 Key Usage: 
                Digital Signature, Key Encipherment
    Signature Algorithm: sha1WithRSAEncryption
        c4:5f:ec:82:b7:7e:53:f4:6d:89:41:0d:da:fe:ea:21:fe:ae:
        23:78:16:66:2f:cc:38:92:18:08:05:a9:88:3a:57:2d:22:c9:
        c7:5d:65:b6:6e:b1:ca:b9:d6:66:4d:d5:0e:b9:79:ac:2c:10:
        b0:a5:b9:27:d3:f7:39:1b:c4:9c:5b:e3:eb:e8:96:15:73:d8:
        17:24:7f:aa:a0:c8:96:be:ed:03:f5:13:4b:20:59:7a:c5:f2:
        e9:ae:2f:62:db:31:2e:d5:e7:56:8d:02:cd:3a:23:92:8b:d8:
        b5:c8:5f:0f:cc:0a:d0:14:e4:f7:01:da:78:66:7d:71:f9:cb:
        e9:27
-----BEGIN CERTIFICATE-----
MIIEFjCCA3+gAwIBAgIBAzANBgkqhkiG9w0BAQUFADCBlzELMAkGA1UEBhMCQ04x
EDAOBgNVBAgTB0JlaWppbmcxEDAOBgNVBAcTB0JlaWppbmcxIDAeBgNVBAoTF3B5
bm9qbyBkZXZlbG9wbWVudCB0ZWFtMRIwEAYDVQQDEwlweW5vam8tY2ExLjAsBgkq
hkiG9w0BCQEWH3B5bm9qby1kaXNjdXNzQGdvb2dsZWdyb3Vwcy5jb20wHhcNMTIw
MzAyMTcxMTIxWhcNMjIwMjI4MTcxMTIxWjCBnTELMAkGA1UEBhMCQ04xEDAOBgNV
BAgTB0JlaWppbmcxEDAOBgNVBAcTB0JlaWppbmcxIDAeBgNVBAoTF3B5bm9qbyBk
ZXZlbG9wbWVudCB0ZWFtMRgwFgYDVQQDEw9weW5vam8tc2VydmVyLTExLjAsBgkq
hkiG9w0BCQEWH3B5bm9qby1kaXNjdXNzQGdvb2dsZWdyb3Vwcy5jb20wgZ8wDQYJ
KoZIhvcNAQEBBQADgY0AMIGJAoGBAMGTy4edc/hRcUYJsU8jXBpn9Nm7fXmVGDQX
YOn1xcwm3HQvC7OBJRZbdwt2lI9+qopZtxi3P1yd8xiE4iDX3oVMb8w5Ge98JaYQ
mf7irkJwtuP9Ti4SDEmQseqTy2/y4G2QQzwQHUTh2WWVZ01knvLSN3/0d+dEjkWm
n2rkAyO3AgMBAAGjggFoMIIBZDAJBgNVHRMEAjAAMBEGCWCGSAGG+EIBAQQEAwIG
QDA0BglghkgBhvhCAQ0EJxYlRWFzeS1SU0EgR2VuZXJhdGVkIFNlcnZlciBDZXJ0
aWZpY2F0ZTAdBgNVHQ4EFgQUyFh8h8a1oIsN8V/qLyROxvzfQ98wgcwGA1UdIwSB
xDCBwYAUtXsPFXZ4NZMOviWHhr/+0vJLMHahgZ2kgZowgZcxCzAJBgNVBAYTAkNO
MRAwDgYDVQQIEwdCZWlqaW5nMRAwDgYDVQQHEwdCZWlqaW5nMSAwHgYDVQQKExdw
eW5vam8gZGV2ZWxvcG1lbnQgdGVhbTESMBAGA1UEAxMJcHlub2pvLWNhMS4wLAYJ
KoZIhvcNAQkBFh9weW5vam8tZGlzY3Vzc0Bnb29nbGVncm91cHMuY29tggkAnyl8
e1crBOEwEwYDVR0lBAwwCgYIKwYBBQUHAwEwCwYDVR0PBAQDAgWgMA0GCSqGSIb3
DQEBBQUAA4GBAMRf7IK3flP0bYlBDdr+6iH+riN4FmYvzDiSGAgFqYg6Vy0iycdd
ZbZuscq51mZN1Q65eawsELCluSfT9zkbxJxb4+volhVz2Bckf6qgyJa+7QP1E0sg
WXrF8umuL2LbMS7V51aNAs06I5KL2LXIXw/MCtAU5PcB2nhmfXH5y+kn
-----END CERTIFICATE-----
