Certificate:
    Data:
        Version: 3 (0x2)
        Serial Number: 5 (0x5)
        Signature Algorithm: sha1WithRSAEncryption
        Issuer: C=CN, ST=Beijing, L=Beijing, O=pynojo development team, CN=pynojo-ca/emailAddress=pynojo-discuss@googlegroups.com
        Validity
            Not Before: Mar  2 17:11:21 2012 GMT
            Not After : Feb 28 17:11:21 2022 GMT
        Subject: C=CN, ST=Beijing, L=Beijing, O=pynojo development team, CN=pynojo-server-3/emailAddress=pynojo-discuss@googlegroups.com
        Subject Public Key Info:
            Public Key Algorithm: rsaEncryption
                Public-Key: (1024 bit)
                Modulus:
                    00:b1:89:33:c4:92:ac:d1:ac:62:b1:bf:fc:eb:df:
                    71:d6:73:85:00:93:fe:4a:ec:30:55:7d:7f:88:0d:
                    8a:fe:ac:93:95:60:7e:63:bf:ea:e8:38:c0:7b:cc:
                    5a:67:d9:57:f6:2e:2a:97:51:ce:76:4d:b1:b6:2f:
                    ba:e0:c5:3c:8b:89:cc:45:3d:5a:f3:e9:36:d3:bb:
                    3a:65:bf:c7:bc:b1:e4:a1:2a:94:69:ef:f9:3f:5d:
                    e2:b7:63:d3:ea:5b:de:6d:b8:7e:b0:10:59:eb:64:
                    06:03:33:f1:b6:16:19:9c:12:45:c5:1c:c3:a8:c7:
                    81:ee:c6:d9:c4:e7:b3:b1:9f
                Exponent: 65537 (0x10001)
        X509v3 extensions:
            X509v3 Basic Constraints: 
                CA:FALSE
            Netscape Cert Type: 
                SSL Server
            Netscape Comment: 
                Easy-RSA Generated Server Certificate
            X509v3 Subject Key Identifier: 
                E6:4A:D9:A7:90:10:F7:E3:5E:04:3A:15:97:D7:3C:94:3B:D5:10:1E
            X509v3 Authority Key Identifier: 
                keyid:B5:7B:0F:15:76:78:35:93:0E:BE:25:87:86:BF:FE:D2:F2:4B:30:76
                DirName:/C=CN/ST=Beijing/L=Beijing/O=pynojo development team/CN=pynojo-ca/emailAddress=pynojo-discuss@googlegroups.com
                serial:9F:29:7C:7B:57:2B:04:E1

            X509v3 Extended Key Usage: 
                TLS Web Server Authentication
            X509v3 Key Usage: 
                Digital Signature, Key Encipherment
    Signature Algorithm: sha1WithRSAEncryption
        72:75:08:7b:fe:ac:12:2f:ac:5d:8b:ef:03:a6:88:a7:b9:4d:
        97:9b:fd:5a:95:60:38:5b:f1:72:92:f8:07:57:f1:41:07:61:
        22:1d:a1:fe:a0:60:ee:85:7c:e5:98:d5:11:34:cf:89:b0:bd:
        85:ec:4e:6a:83:24:a6:32:a6:9a:c8:10:06:54:f1:d7:12:75:
        a6:54:a4:6a:8f:3a:7c:d2:b4:cd:97:99:19:95:73:a7:ff:1a:
        98:3c:3f:1a:a1:f4:7d:13:b2:76:fc:76:4f:f7:15:b8:37:6e:
        35:5b:75:66:f5:50:7e:7a:88:c5:0b:46:e1:a2:1c:e3:9a:ae:
        4d:e8
-----BEGIN CERTIFICATE-----
MIIEFjCCA3+gAwIBAgIBBTANBgkqhkiG9w0BAQUFADCBlzELMAkGA1UEBhMCQ04x
EDAOBgNVBAgTB0JlaWppbmcxEDAOBgNVBAcTB0JlaWppbmcxIDAeBgNVBAoTF3B5
bm9qbyBkZXZlbG9wbWVudCB0ZWFtMRIwEAYDVQQDEwlweW5vam8tY2ExLjAsBgkq
hkiG9w0BCQEWH3B5bm9qby1kaXNjdXNzQGdvb2dsZWdyb3Vwcy5jb20wHhcNMTIw
MzAyMTcxMTIxWhcNMjIwMjI4MTcxMTIxWjCBnTELMAkGA1UEBhMCQ04xEDAOBgNV
BAgTB0JlaWppbmcxEDAOBgNVBAcTB0JlaWppbmcxIDAeBgNVBAoTF3B5bm9qbyBk
ZXZlbG9wbWVudCB0ZWFtMRgwFgYDVQQDEw9weW5vam8tc2VydmVyLTMxLjAsBgkq
hkiG9w0BCQEWH3B5bm9qby1kaXNjdXNzQGdvb2dsZWdyb3Vwcy5jb20wgZ8wDQYJ
KoZIhvcNAQEBBQADgY0AMIGJAoGBALGJM8SSrNGsYrG//OvfcdZzhQCT/krsMFV9
f4gNiv6sk5VgfmO/6ug4wHvMWmfZV/YuKpdRznZNsbYvuuDFPIuJzEU9WvPpNtO7
OmW/x7yx5KEqlGnv+T9d4rdj0+pb3m24frAQWetkBgMz8bYWGZwSRcUcw6jHge7G
2cTns7GfAgMBAAGjggFoMIIBZDAJBgNVHRMEAjAAMBEGCWCGSAGG+EIBAQQEAwIG
QDA0BglghkgBhvhCAQ0EJxYlRWFzeS1SU0EgR2VuZXJhdGVkIFNlcnZlciBDZXJ0
aWZpY2F0ZTAdBgNVHQ4EFgQU5krZp5AQ9+NeBDoVl9c8lDvVEB4wgcwGA1UdIwSB
xDCBwYAUtXsPFXZ4NZMOviWHhr/+0vJLMHahgZ2kgZowgZcxCzAJBgNVBAYTAkNO
MRAwDgYDVQQIEwdCZWlqaW5nMRAwDgYDVQQHEwdCZWlqaW5nMSAwHgYDVQQKExdw
eW5vam8gZGV2ZWxvcG1lbnQgdGVhbTESMBAGA1UEAxMJcHlub2pvLWNhMS4wLAYJ
KoZIhvcNAQkBFh9weW5vam8tZGlzY3Vzc0Bnb29nbGVncm91cHMuY29tggkAnyl8
e1crBOEwEwYDVR0lBAwwCgYIKwYBBQUHAwEwCwYDVR0PBAQDAgWgMA0GCSqGSIb3
DQEBBQUAA4GBAHJ1CHv+rBIvrF2L7wOmiKe5TZeb/VqVYDhb8XKS+AdX8UEHYSId
of6gYO6FfOWY1RE0z4mwvYXsTmqDJKYypprIEAZU8dcSdaZUpGqPOnzStM2XmRmV
c6f/Gpg8Pxqh9H0Tsnb8dk/3Fbg3bjVbdWb1UH56iMULRuGiHOOark3o
-----END CERTIFICATE-----
