Certificate:
    Data:
        Version: 3 (0x2)
        Serial Number: 7 (0x7)
        Signature Algorithm: sha1WithRSAEncryption
        Issuer: C=CN, ST=Beijing, L=Beijing, O=pynojo development team, CN=pynojo-ca/emailAddress=pynojo-discuss@googlegroups.com
        Validity
            Not Before: Mar  2 17:11:21 2012 GMT
            Not After : Feb 28 17:11:21 2022 GMT
        Subject: C=CN, ST=Beijing, L=Beijing, O=pynojo development team, CN=pynojo-server-5/emailAddress=pynojo-discuss@googlegroups.com
        Subject Public Key Info:
            Public Key Algorithm: rsaEncryption
                Public-Key: (1024 bit)
                Modulus:
                    00:d6:78:13:f0:1d:56:e5:59:d6:8e:7a:95:be:8e:
                    7c:f6:df:4c:56:2a:6d:df:d0:2b:18:e2:b9:94:59:
                    0b:89:28:11:8c:85:ae:e2:31:43:cc:e7:f0:b4:1d:
                    3b:aa:78:99:d0:2d:5c:60:9b:e7:00:ac:4b:bc:03:
                    ae:d9:4d:a2:e6:a4:11:69:37:6f:38:8d:4e:80:8f:
                    84:9d:d9:59:27:d0:b2:9c:05:6b:93:f3:40:be:e0:
                    bc:44:b4:02:66:26:c5:99:93:a3:1a:22:03:e7:ab:
                    b7:53:9a:e1:fb:ca:ea:19:80:98:66:19:52:b3:97:
                    6d:57:38:fd:d0:8c:7e:51:49
                Exponent: 65537 (0x10001)
        X509v3 extensions:
            X509v3 Basic Constraints: 
                CA:FALSE
            Netscape Cert Type: 
                SSL Server
            Netscape Comment: 
                Easy-RSA Generated Server Certificate
            X509v3 Subject Key Identifier: 
                61:8B:24:E0:A8:AC:5D:DA:62:13:BB:6B:9E:CE:EB:6B:E3:7A:41:E6
            X509v3 Authority Key Identifier: 
                keyid:B5:7B:0F:15:76:78:35:93:0E:BE:25:87:86:BF:FE:D2:F2:4B:30:76
                DirName:/C=CN/ST=Beijing/L=Beijing/O=pynojo development team/CN=pynojo-ca/emailAddress=pynojo-discuss@googlegroups.com
                serial:9F:29:7C:7B:57:2B:04:E1

            X509v3 Extended Key Usage: 
                TLS Web Server Authentication
            X509v3 Key Usage: 
                Digital Signature, Key Encipherment
    Signature Algorithm: sha1WithRSAEncryption
        71:7a:6b:c0:c6:32:75:cf:62:03:b6:75:07:7f:99:db:7c:bd:
        66:9f:60:84:2b:bd:04:7f:6b:90:d6:50:64:f9:ea:76:05:90:
        5d:7c:ba:11:a8:6a:82:89:95:28:01:56:94:67:dc:ef:38:ca:
        9b:27:cd:b0:45:78:92:b3:d4:23:e1:e4:4a:e4:5c:27:65:40:
        06:70:6c:9e:7c:db:94:f7:9f:36:a9:e9:77:10:f3:ad:bf:12:
        73:cc:66:bb:48:12:76:83:cf:56:ec:84:48:25:f4:e7:36:e0:
        92:33:d7:80:a3:0d:6a:c9:77:3c:a9:29:bb:e4:5b:09:8c:f0:
        c6:71
-----BEGIN CERTIFICATE-----
MIIEFjCCA3+gAwIBAgIBBzANBgkqhkiG9w0BAQUFADCBlzELMAkGA1UEBhMCQ04x
EDAOBgNVBAgTB0JlaWppbmcxEDAOBgNVBAcTB0JlaWppbmcxIDAeBgNVBAoTF3B5
bm9qbyBkZXZlbG9wbWVudCB0ZWFtMRIwEAYDVQQDEwlweW5vam8tY2ExLjAsBgkq
hkiG9w0BCQEWH3B5bm9qby1kaXNjdXNzQGdvb2dsZWdyb3Vwcy5jb20wHhcNMTIw
MzAyMTcxMTIxWhcNMjIwMjI4MTcxMTIxWjCBnTELMAkGA1UEBhMCQ04xEDAOBgNV
BAgTB0JlaWppbmcxEDAOBgNVBAcTB0JlaWppbmcxIDAeBgNVBAoTF3B5bm9qbyBk
ZXZlbG9wbWVudCB0ZWFtMRgwFgYDVQQDEw9weW5vam8tc2VydmVyLTUxLjAsBgkq
hkiG9w0BCQEWH3B5bm9qby1kaXNjdXNzQGdvb2dsZWdyb3Vwcy5jb20wgZ8wDQYJ
KoZIhvcNAQEBBQADgY0AMIGJAoGBANZ4E/AdVuVZ1o56lb6OfPbfTFYqbd/QKxji
uZRZC4koEYyFruIxQ8zn8LQdO6p4mdAtXGCb5wCsS7wDrtlNouakEWk3bziNToCP
hJ3ZWSfQspwFa5PzQL7gvES0AmYmxZmToxoiA+ert1Oa4fvK6hmAmGYZUrOXbVc4
/dCMflFJAgMBAAGjggFoMIIBZDAJBgNVHRMEAjAAMBEGCWCGSAGG+EIBAQQEAwIG
QDA0BglghkgBhvhCAQ0EJxYlRWFzeS1SU0EgR2VuZXJhdGVkIFNlcnZlciBDZXJ0
aWZpY2F0ZTAdBgNVHQ4EFgQUYYsk4KisXdpiE7trns7ra+N6QeYwgcwGA1UdIwSB
xDCBwYAUtXsPFXZ4NZMOviWHhr/+0vJLMHahgZ2kgZowgZcxCzAJBgNVBAYTAkNO
MRAwDgYDVQQIEwdCZWlqaW5nMRAwDgYDVQQHEwdCZWlqaW5nMSAwHgYDVQQKExdw
eW5vam8gZGV2ZWxvcG1lbnQgdGVhbTESMBAGA1UEAxMJcHlub2pvLWNhMS4wLAYJ
KoZIhvcNAQkBFh9weW5vam8tZGlzY3Vzc0Bnb29nbGVncm91cHMuY29tggkAnyl8
e1crBOEwEwYDVR0lBAwwCgYIKwYBBQUHAwEwCwYDVR0PBAQDAgWgMA0GCSqGSIb3
DQEBBQUAA4GBAHF6a8DGMnXPYgO2dQd/mdt8vWafYIQrvQR/a5DWUGT56nYFkF18
uhGoaoKJlSgBVpRn3O84ypsnzbBFeJKz1CPh5ErkXCdlQAZwbJ5825T3nzap6XcQ
862/EnPMZrtIEnaDz1bshEgl9Oc24JIz14CjDWrJdzypKbvkWwmM8MZx
-----END CERTIFICATE-----
