Certificate:
    Data:
        Version: 3 (0x2)
        Serial Number: 8 (0x8)
        Signature Algorithm: sha1WithRSAEncryption
        Issuer: C=CN, ST=Beijing, L=Beijing, O=pynojo development team, CN=pynojo-ca/emailAddress=pynojo-discuss@googlegroups.com
        Validity
            Not Before: Mar  2 17:11:21 2012 GMT
            Not After : Feb 28 17:11:21 2022 GMT
        Subject: C=CN, ST=Beijing, L=Beijing, O=pynojo development team, CN=pynojo-server-6/emailAddress=pynojo-discuss@googlegroups.com
        Subject Public Key Info:
            Public Key Algorithm: rsaEncryption
                Public-Key: (1024 bit)
                Modulus:
                    00:d7:bd:09:a1:4a:d5:a0:9e:56:6f:13:2e:0f:4e:
                    da:4f:9c:86:9b:77:f4:7d:79:39:20:cb:5e:dd:36:
                    e5:a8:fd:6c:2f:92:92:88:0b:7c:bc:e3:b5:02:6d:
                    a3:8c:f2:bf:6c:fb:26:7e:12:44:ad:23:f7:27:03:
                    9b:d4:8c:8b:3f:8c:d9:03:cd:90:f4:9c:71:b3:73:
                    51:01:b4:bc:c6:c2:ba:6d:98:9e:93:42:b1:8e:d8:
                    b4:39:87:ec:d2:98:d3:3d:ad:97:cc:7f:ee:cb:00:
                    8f:87:20:49:22:b8:e8:e9:b4:d4:a1:d0:de:9f:48:
                    e6:1f:cf:cd:0e:19:2b:72:d3
                Exponent: 65537 (0x10001)
        X509v3 extensions:
            X509v3 Basic Constraints: 
                CA:FALSE
            Netscape Cert Type: 
                SSL Server
            Netscape Comment: 
                Easy-RSA Generated Server Certificate
            X509v3 Subject Key Identifier: 
                E2:68:37:5E:2B:5B:AA:81:09:7B:77:23:B6:EE:A0:79:D8:A1:22:C9
            X509v3 Authority Key Identifier: 
                keyid:B5:7B:0F:15:76:78:35:93:0E:BE:25:87:86:BF:FE:D2:F2:4B:30:76
                DirName:/C=CN/ST=Beijing/L=Beijing/O=pynojo development team/CN=pynojo-ca/emailAddress=pynojo-discuss@googlegroups.com
                serial:9F:29:7C:7B:57:2B:04:E1

            X509v3 Extended Key Usage: 
                TLS Web Server Authentication
            X509v3 Key Usage: 
                Digital Signature, Key Encipherment
    Signature Algorithm: sha1WithRSAEncryption
        c7:26:80:09:54:ce:98:34:49:79:0c:6a:e1:50:c5:57:d5:ae:
        89:67:e6:b0:ad:d3:a9:82:ae:34:63:88:24:1f:d2:ab:45:16:
        74:91:87:53:2a:93:9d:7b:2c:64:55:81:29:bf:e3:00:1e:36:
        89:20:f9:ee:36:18:93:d3:7d:d0:a1:49:3b:31:76:9e:f9:22:
        a5:06:06:51:d2:76:53:03:58:34:ec:6e:5e:23:21:d3:b3:98:
        cb:bb:ac:1a:f6:aa:1a:69:1b:49:90:21:83:c2:af:77:8c:16:
        1c:03:1c:ad:ed:c3:4d:43:65:68:be:82:4d:e0:db:de:fa:9b:
        bb:b8
-----BEGIN CERTIFICATE-----
MIIEFjCCA3+gAwIBAgIBCDANBgkqhkiG9w0BAQUFADCBlzELMAkGA1UEBhMCQ04x
EDAOBgNVBAgTB0JlaWppbmcxEDAOBgNVBAcTB0JlaWppbmcxIDAeBgNVBAoTF3B5
bm9qbyBkZXZlbG9wbWVudCB0ZWFtMRIwEAYDVQQDEwlweW5vam8tY2ExLjAsBgkq
hkiG9w0BCQEWH3B5bm9qby1kaXNjdXNzQGdvb2dsZWdyb3Vwcy5jb20wHhcNMTIw
MzAyMTcxMTIxWhcNMjIwMjI4MTcxMTIxWjCBnTELMAkGA1UEBhMCQ04xEDAOBgNV
BAgTB0JlaWppbmcxEDAOBgNVBAcTB0JlaWppbmcxIDAeBgNVBAoTF3B5bm9qbyBk
ZXZlbG9wbWVudCB0ZWFtMRgwFgYDVQQDEw9weW5vam8tc2VydmVyLTYxLjAsBgkq
hkiG9w0BCQEWH3B5bm9qby1kaXNjdXNzQGdvb2dsZWdyb3Vwcy5jb20wgZ8wDQYJ
KoZIhvcNAQEBBQADgY0AMIGJAoGBANe9CaFK1aCeVm8TLg9O2k+chpt39H15OSDL
Xt025aj9bC+SkogLfLzjtQJto4zyv2z7Jn4SRK0j9ycDm9SMiz+M2QPNkPSccbNz
UQG0vMbCum2YnpNCsY7YtDmH7NKY0z2tl8x/7ssAj4cgSSK46Om01KHQ3p9I5h/P
zQ4ZK3LTAgMBAAGjggFoMIIBZDAJBgNVHRMEAjAAMBEGCWCGSAGG+EIBAQQEAwIG
QDA0BglghkgBhvhCAQ0EJxYlRWFzeS1SU0EgR2VuZXJhdGVkIFNlcnZlciBDZXJ0
aWZpY2F0ZTAdBgNVHQ4EFgQU4mg3XitbqoEJe3cjtu6gedihIskwgcwGA1UdIwSB
xDCBwYAUtXsPFXZ4NZMOviWHhr/+0vJLMHahgZ2kgZowgZcxCzAJBgNVBAYTAkNO
MRAwDgYDVQQIEwdCZWlqaW5nMRAwDgYDVQQHEwdCZWlqaW5nMSAwHgYDVQQKExdw
eW5vam8gZGV2ZWxvcG1lbnQgdGVhbTESMBAGA1UEAxMJcHlub2pvLWNhMS4wLAYJ
KoZIhvcNAQkBFh9weW5vam8tZGlzY3Vzc0Bnb29nbGVncm91cHMuY29tggkAnyl8
e1crBOEwEwYDVR0lBAwwCgYIKwYBBQUHAwEwCwYDVR0PBAQDAgWgMA0GCSqGSIb3
DQEBBQUAA4GBAMcmgAlUzpg0SXkMauFQxVfVroln5rCt06mCrjRjiCQf0qtFFnSR
h1Mqk517LGRVgSm/4wAeNokg+e42GJPTfdChSTsxdp75IqUGBlHSdlMDWDTsbl4j
IdOzmMu7rBr2qhppG0mQIYPCr3eMFhwDHK3tw01DZWi+gk3g2976m7u4
-----END CERTIFICATE-----
