Certificate:
    Data:
        Version: 3 (0x2)
        Serial Number: 10 (0xa)
        Signature Algorithm: sha1WithRSAEncryption
        Issuer: C=CN, ST=Beijing, L=Beijing, O=pynojo development team, CN=pynojo-ca/emailAddress=pynojo-discuss@googlegroups.com
        Validity
            Not Before: Mar  2 17:11:22 2012 GMT
            Not After : Feb 28 17:11:22 2022 GMT
        Subject: C=CN, ST=Beijing, L=Beijing, O=pynojo development team, CN=pynojo-server-8/emailAddress=pynojo-discuss@googlegroups.com
        Subject Public Key Info:
            Public Key Algorithm: rsaEncryption
                Public-Key: (1024 bit)
                Modulus:
                    00:c5:b4:52:68:2e:05:d9:a0:33:41:7e:06:9b:96:
                    89:3f:71:bd:c4:49:65:21:af:c5:a4:ec:18:13:c9:
                    04:7b:dd:aa:ef:3e:58:bc:86:56:5e:66:d2:7e:ae:
                    aa:a7:28:46:e7:ac:50:57:6c:54:a9:07:7c:38:a0:
                    2d:75:2e:ee:f3:79:53:ca:8c:c2:59:0b:5d:3d:14:
                    35:09:11:eb:e5:e8:a6:92:99:71:b6:21:05:5b:b7:
                    76:30:21:e1:92:b4:17:6b:36:06:d1:0c:20:90:9b:
                    0d:5f:02:a0:08:fb:3e:45:14:ac:76:01:99:9f:a4:
                    26:eb:16:50:a1:ad:26:15:83
                Exponent: 65537 (0x10001)
        X509v3 extensions:
            X509v3 Basic Constraints: 
                CA:FALSE
            Netscape Cert Type: 
                SSL Server
            Netscape Comment: 
                Easy-RSA Generated Server Certificate
            X509v3 Subject Key Identifier: 
                B9:D1:24:41:52:32:79:69:E7:5F:AF:76:32:8D:A3:89:75:34:FF:C9
            X509v3 Authority Key Identifier: 
                keyid:B5:7B:0F:15:76:78:35:93:0E:BE:25:87:86:BF:FE:D2:F2:4B:30:76
                DirName:/C=CN/ST=Beijing/L=Beijing/O=pynojo development team/CN=pynojo-ca/emailAddress=pynojo-discuss@googlegroups.com
                serial:9F:29:7C:7B:57:2B:04:E1

            X509v3 Extended Key Usage: 
                TLS Web Server Authentication
            X509v3 Key Usage: 
                Digital Signature, Key Encipherment
    Signature Algorithm: sha1WithRSAEncryption
        0d:98:74:cb:3c:3c:84:34:fd:cc:49:7e:4e:86:25:3b:3d:7f:
        03:61:e5:84:59:97:82:13:71:52:02:fa:41:db:06:6d:42:d3:
        71:95:01:b6:6a:1c:f8:99:cf:d6:8d:59:aa:78:c6:07:bd:5a:
        95:6b:38:73:14:3d:f4:cd:22:cf:92:c6:ee:e9:cc:56:48:00:
        47:dd:fc:87:1e:68:c6:f9:89:61:1c:84:bf:78:1d:da:e4:ea:
        ed:fc:3a:8c:9c:1b:b1:7a:29:db:40:e6:3f:9d:e4:86:14:bc:
        61:cf:10:69:83:b8:fd:73:fe:9b:9b:18:06:3a:b0:a0:58:f4:
        76:22
-----BEGIN CERTIFICATE-----
MIIEFjCCA3+gAwIBAgIBCjANBgkqhkiG9w0BAQUFADCBlzELMAkGA1UEBhMCQ04x
EDAOBgNVBAgTB0JlaWppbmcxEDAOBgNVBAcTB0JlaWppbmcxIDAeBgNVBAoTF3B5
bm9qbyBkZXZlbG9wbWVudCB0ZWFtMRIwEAYDVQQDEwlweW5vam8tY2ExLjAsBgkq
hkiG9w0BCQEWH3B5bm9qby1kaXNjdXNzQGdvb2dsZWdyb3Vwcy5jb20wHhcNMTIw
MzAyMTcxMTIyWhcNMjIwMjI4MTcxMTIyWjCBnTELMAkGA1UEBhMCQ04xEDAOBgNV
BAgTB0JlaWppbmcxEDAOBgNVBAcTB0JlaWppbmcxIDAeBgNVBAoTF3B5bm9qbyBk
ZXZlbG9wbWVudCB0ZWFtMRgwFgYDVQQDEw9weW5vam8tc2VydmVyLTgxLjAsBgkq
hkiG9w0BCQEWH3B5bm9qby1kaXNjdXNzQGdvb2dsZWdyb3Vwcy5jb20wgZ8wDQYJ
KoZIhvcNAQEBBQADgY0AMIGJAoGBAMW0UmguBdmgM0F+BpuWiT9xvcRJZSGvxaTs
GBPJBHvdqu8+WLyGVl5m0n6uqqcoRuesUFdsVKkHfDigLXUu7vN5U8qMwlkLXT0U
NQkR6+XoppKZcbYhBVu3djAh4ZK0F2s2BtEMIJCbDV8CoAj7PkUUrHYBmZ+kJusW
UKGtJhWDAgMBAAGjggFoMIIBZDAJBgNVHRMEAjAAMBEGCWCGSAGG+EIBAQQEAwIG
QDA0BglghkgBhvhCAQ0EJxYlRWFzeS1SU0EgR2VuZXJhdGVkIFNlcnZlciBDZXJ0
aWZpY2F0ZTAdBgNVHQ4EFgQUudEkQVIyeWnnX692Mo2jiXU0/8kwgcwGA1UdIwSB
xDCBwYAUtXsPFXZ4NZMOviWHhr/+0vJLMHahgZ2kgZowgZcxCzAJBgNVBAYTAkNO
MRAwDgYDVQQIEwdCZWlqaW5nMRAwDgYDVQQHEwdCZWlqaW5nMSAwHgYDVQQKExdw
eW5vam8gZGV2ZWxvcG1lbnQgdGVhbTESMBAGA1UEAxMJcHlub2pvLWNhMS4wLAYJ
KoZIhvcNAQkBFh9weW5vam8tZGlzY3Vzc0Bnb29nbGVncm91cHMuY29tggkAnyl8
e1crBOEwEwYDVR0lBAwwCgYIKwYBBQUHAwEwCwYDVR0PBAQDAgWgMA0GCSqGSIb3
DQEBBQUAA4GBAA2YdMs8PIQ0/cxJfk6GJTs9fwNh5YRZl4ITcVIC+kHbBm1C03GV
AbZqHPiZz9aNWap4xge9WpVrOHMUPfTNIs+Sxu7pzFZIAEfd/IceaMb5iWEchL94
Hdrk6u38OoycG7F6KdtA5j+d5IYUvGHPEGmDuP1z/pubGAY6sKBY9HYi
-----END CERTIFICATE-----
