Certificate:
    Data:
        Version: 3 (0x2)
        Serial Number: 6 (0x6)
        Signature Algorithm: sha1WithRSAEncryption
        Issuer: C=CN, ST=Beijing, L=Beijing, O=pynojo development team, CN=pynojo-ca/emailAddress=pynojo-discuss@googlegroups.com
        Validity
            Not Before: Mar  2 17:11:21 2012 GMT
            Not After : Feb 28 17:11:21 2022 GMT
        Subject: C=CN, ST=Beijing, L=Beijing, O=pynojo development team, CN=pynojo-server-4/emailAddress=pynojo-discuss@googlegroups.com
        Subject Public Key Info:
            Public Key Algorithm: rsaEncryption
                Public-Key: (1024 bit)
                Modulus:
                    00:c3:51:f9:bd:00:28:a7:3b:e7:f2:4b:56:4a:75:
                    57:d0:9e:ef:cb:37:1b:01:ea:63:3b:5c:f8:68:20:
                    03:cf:d5:e1:f6:07:6f:74:05:34:dd:f2:74:94:b7:
                    cd:10:07:ea:ae:19:a1:65:f9:e3:c0:8b:f2:e2:9d:
                    3c:87:c1:b4:74:24:72:62:aa:cd:dc:5a:ec:35:af:
                    69:74:ec:53:fd:e7:a0:a2:56:c2:d7:db:e0:c2:5b:
                    8c:8b:01:f2:09:87:09:d7:4b:a9:d0:31:ab:65:fd:
                    0a:63:e3:8b:79:b1:e7:12:73:09:bc:e9:30:57:3b:
                    84:53:b7:8b:6c:66:09:a1:cb
                Exponent: 65537 (0x10001)
        X509v3 extensions:
            X509v3 Basic Constraints: 
                CA:FALSE
            Netscape Cert Type: 
                SSL Server
            Netscape Comment: 
                Easy-RSA Generated Server Certificate
            X509v3 Subject Key Identifier: 
                39:A9:AD:A0:44:84:D2:3B:CE:1E:06:90:37:88:80:CE:6D:30:1F:67
            X509v3 Authority Key Identifier: 
                keyid:B5:7B:0F:15:76:78:35:93:0E:BE:25:87:86:BF:FE:D2:F2:4B:30:76
                DirName:/C=CN/ST=Beijing/L=Beijing/O=pynojo development team/CN=pynojo-ca/emailAddress=pynojo-discuss@googlegroups.com
                serial:9F:29:7C:7B:57:2B:04:E1

            X509v3 Extended Key Usage: 
                TLS Web Server Authentication
            X509v3 Key Usage: 
                Digital Signature, Key Encipherment
    Signature Algorithm: sha1WithRSAEncryption
        10:68:ae:d3:01:74:e9:68:5f:db:81:aa:10:87:78:72:56:f3:
        d8:78:38:9d:c7:e9:88:9f:b4:f1:44:67:e5:a8:03:82:db:22:
        68:5f:ce:89:52:0b:13:37:b9:91:89:ca:34:55:dc:fd:11:bf:
        c0:ad:e2:17:90:65:26:ee:a1:e5:85:52:23:5e:b2:e7:8d:71:
        74:71:59:73:a7:69:31:b6:c0:8b:b8:5a:41:8d:00:33:7e:4a:
        e8:76:61:82:95:78:b0:65:bb:fd:6c:4d:34:bd:1e:75:75:76:
        31:e8:b7:65:19:be:4a:4d:6f:bc:17:12:f0:af:50:ac:af:90:
        39:2e
-----BEGIN CERTIFICATE-----
MIIEFjCCA3+gAwIBAgIBBjANBgkqhkiG9w0BAQUFADCBlzELMAkGA1UEBhMCQ04x
EDAOBgNVBAgTB0JlaWppbmcxEDAOBgNVBAcTB0JlaWppbmcxIDAeBgNVBAoTF3B5
bm9qbyBkZXZlbG9wbWVudCB0ZWFtMRIwEAYDVQQDEwlweW5vam8tY2ExLjAsBgkq
hkiG9w0BCQEWH3B5bm9qby1kaXNjdXNzQGdvb2dsZWdyb3Vwcy5jb20wHhcNMTIw
MzAyMTcxMTIxWhcNMjIwMjI4MTcxMTIxWjCBnTELMAkGA1UEBhMCQ04xEDAOBgNV
BAgTB0JlaWppbmcxEDAOBgNVBAcTB0JlaWppbmcxIDAeBgNVBAoTF3B5bm9qbyBk
ZXZlbG9wbWVudCB0ZWFtMRgwFgYDVQQDEw9weW5vam8tc2VydmVyLTQxLjAsBgkq
hkiG9w0BCQEWH3B5bm9qby1kaXNjdXNzQGdvb2dsZWdyb3Vwcy5jb20wgZ8wDQYJ
KoZIhvcNAQEBBQADgY0AMIGJAoGBAMNR+b0AKKc75/JLVkp1V9Ce78s3GwHqYztc
+GggA8/V4fYHb3QFNN3ydJS3zRAH6q4ZoWX548CL8uKdPIfBtHQkcmKqzdxa7DWv
aXTsU/3noKJWwtfb4MJbjIsB8gmHCddLqdAxq2X9CmPji3mx5xJzCbzpMFc7hFO3
i2xmCaHLAgMBAAGjggFoMIIBZDAJBgNVHRMEAjAAMBEGCWCGSAGG+EIBAQQEAwIG
QDA0BglghkgBhvhCAQ0EJxYlRWFzeS1SU0EgR2VuZXJhdGVkIFNlcnZlciBDZXJ0
aWZpY2F0ZTAdBgNVHQ4EFgQUOamtoESE0jvOHgaQN4iAzm0wH2cwgcwGA1UdIwSB
xDCBwYAUtXsPFXZ4NZMOviWHhr/+0vJLMHahgZ2kgZowgZcxCzAJBgNVBAYTAkNO
MRAwDgYDVQQIEwdCZWlqaW5nMRAwDgYDVQQHEwdCZWlqaW5nMSAwHgYDVQQKExdw
eW5vam8gZGV2ZWxvcG1lbnQgdGVhbTESMBAGA1UEAxMJcHlub2pvLWNhMS4wLAYJ
KoZIhvcNAQkBFh9weW5vam8tZGlzY3Vzc0Bnb29nbGVncm91cHMuY29tggkAnyl8
e1crBOEwEwYDVR0lBAwwCgYIKwYBBQUHAwEwCwYDVR0PBAQDAgWgMA0GCSqGSIb3
DQEBBQUAA4GBABBortMBdOloX9uBqhCHeHJW89h4OJ3H6YiftPFEZ+WoA4LbImhf
zolSCxM3uZGJyjRV3P0Rv8Ct4heQZSbuoeWFUiNesueNcXRxWXOnaTG2wIu4WkGN
ADN+Suh2YYKVeLBlu/1sTTS9HnV1djHot2UZvkpNb7wXEvCvUKyvkDku
-----END CERTIFICATE-----
