Certificate:
    Data:
        Version: 3 (0x2)
        Serial Number: 9 (0x9)
        Signature Algorithm: sha1WithRSAEncryption
        Issuer: C=CN, ST=Beijing, L=Beijing, O=pynojo development team, CN=pynojo-ca/emailAddress=pynojo-discuss@googlegroups.com
        Validity
            Not Before: Mar  2 17:11:22 2012 GMT
            Not After : Feb 28 17:11:22 2022 GMT
        Subject: C=CN, ST=Beijing, L=Beijing, O=pynojo development team, CN=pynojo-server-7/emailAddress=pynojo-discuss@googlegroups.com
        Subject Public Key Info:
            Public Key Algorithm: rsaEncryption
                Public-Key: (1024 bit)
                Modulus:
                    00:ad:de:59:a3:75:6a:d0:96:6e:fd:7e:f0:dd:d6:
                    a0:11:55:cc:51:43:27:fd:b7:29:15:50:63:08:9e:
                    56:34:1d:29:2d:6c:7e:11:e1:61:c6:0c:99:e0:58:
                    17:f8:f0:d1:78:01:b3:10:96:d8:fb:39:92:21:ec:
                    5e:e1:29:57:91:2a:ba:cd:df:3e:7b:be:f2:b5:81:
                    04:84:87:7f:55:5e:29:3d:51:5f:cf:35:6e:6e:62:
                    8c:21:24:f3:a7:c6:07:db:4f:3a:81:08:c8:70:c8:
                    32:02:39:78:42:c7:24:67:4a:37:91:d0:88:32:a0:
                    52:d5:21:9f:b9:db:f7:e1:27
                Exponent: 65537 (0x10001)
        X509v3 extensions:
            X509v3 Basic Constraints: 
                CA:FALSE
            Netscape Cert Type: 
                SSL Server
            Netscape Comment: 
                Easy-RSA Generated Server Certificate
            X509v3 Subject Key Identifier: 
                01:26:40:FD:C9:AA:05:53:77:27:F4:F5:92:C7:6E:5A:12:AF:AD:66
            X509v3 Authority Key Identifier: 
                keyid:B5:7B:0F:15:76:78:35:93:0E:BE:25:87:86:BF:FE:D2:F2:4B:30:76
                DirName:/C=CN/ST=Beijing/L=Beijing/O=pynojo development team/CN=pynojo-ca/emailAddress=pynojo-discuss@googlegroups.com
                serial:9F:29:7C:7B:57:2B:04:E1

            X509v3 Extended Key Usage: 
                TLS Web Server Authentication
            X509v3 Key Usage: 
                Digital Signature, Key Encipherment
    Signature Algorithm: sha1WithRSAEncryption
        b2:33:43:bb:7c:c5:a2:ac:8c:f7:ca:88:5f:10:b8:40:f8:86:
        d5:94:8d:8c:e9:30:b3:55:1f:e5:b3:5f:38:5d:ec:d6:ce:c5:
        81:d3:6a:ab:10:e1:52:18:45:8d:0f:12:07:5f:fb:6a:cc:49:
        c2:09:51:33:a5:95:c4:2a:0e:4b:0b:bf:8f:ee:f9:20:b0:78:
        6a:39:db:f7:ae:7d:57:d5:bd:5d:66:28:d8:99:2a:b4:33:1e:
        86:ff:97:ba:d3:9d:c2:b3:f6:1d:c9:50:b4:4c:55:35:2c:df:
        b1:5b:92:84:e1:ca:6c:8e:98:09:ac:b3:34:f8:22:de:9f:6a:
        2a:ff
-----BEGIN CERTIFICATE-----
MIIEFjCCA3+gAwIBAgIBCTANBgkqhkiG9w0BAQUFADCBlzELMAkGA1UEBhMCQ04x
EDAOBgNVBAgTB0JlaWppbmcxEDAOBgNVBAcTB0JlaWppbmcxIDAeBgNVBAoTF3B5
bm9qbyBkZXZlbG9wbWVudCB0ZWFtMRIwEAYDVQQDEwlweW5vam8tY2ExLjAsBgkq
hkiG9w0BCQEWH3B5bm9qby1kaXNjdXNzQGdvb2dsZWdyb3Vwcy5jb20wHhcNMTIw
MzAyMTcxMTIyWhcNMjIwMjI4MTcxMTIyWjCBnTELMAkGA1UEBhMCQ04xEDAOBgNV
BAgTB0JlaWppbmcxEDAOBgNVBAcTB0JlaWppbmcxIDAeBgNVBAoTF3B5bm9qbyBk
ZXZlbG9wbWVudCB0ZWFtMRgwFgYDVQQDEw9weW5vam8tc2VydmVyLTcxLjAsBgkq
hkiG9w0BCQEWH3B5bm9qby1kaXNjdXNzQGdvb2dsZWdyb3Vwcy5jb20wgZ8wDQYJ
KoZIhvcNAQEBBQADgY0AMIGJAoGBAK3eWaN1atCWbv1+8N3WoBFVzFFDJ/23KRVQ
YwieVjQdKS1sfhHhYcYMmeBYF/jw0XgBsxCW2Ps5kiHsXuEpV5Equs3fPnu+8rWB
BISHf1VeKT1RX881bm5ijCEk86fGB9tPOoEIyHDIMgI5eELHJGdKN5HQiDKgUtUh
n7nb9+EnAgMBAAGjggFoMIIBZDAJBgNVHRMEAjAAMBEGCWCGSAGG+EIBAQQEAwIG
QDA0BglghkgBhvhCAQ0EJxYlRWFzeS1SU0EgR2VuZXJhdGVkIFNlcnZlciBDZXJ0
aWZpY2F0ZTAdBgNVHQ4EFgQUASZA/cmqBVN3J/T1ksduWhKvrWYwgcwGA1UdIwSB
xDCBwYAUtXsPFXZ4NZMOviWHhr/+0vJLMHahgZ2kgZowgZcxCzAJBgNVBAYTAkNO
MRAwDgYDVQQIEwdCZWlqaW5nMRAwDgYDVQQHEwdCZWlqaW5nMSAwHgYDVQQKExdw
eW5vam8gZGV2ZWxvcG1lbnQgdGVhbTESMBAGA1UEAxMJcHlub2pvLWNhMS4wLAYJ
KoZIhvcNAQkBFh9weW5vam8tZGlzY3Vzc0Bnb29nbGVncm91cHMuY29tggkAnyl8
e1crBOEwEwYDVR0lBAwwCgYIKwYBBQUHAwEwCwYDVR0PBAQDAgWgMA0GCSqGSIb3
DQEBBQUAA4GBALIzQ7t8xaKsjPfKiF8QuED4htWUjYzpMLNVH+WzXzhd7NbOxYHT
aqsQ4VIYRY0PEgdf+2rMScIJUTOllcQqDksLv4/u+SCweGo52/eufVfVvV1mKNiZ
KrQzHob/l7rTncKz9h3JULRMVTUs37FbkoThymyOmAmsszT4It6fair/
-----END CERTIFICATE-----
