Certificate:
    Data:
        Version: 3 (0x2)
        Serial Number: 11 (0xb)
        Signature Algorithm: sha1WithRSAEncryption
        Issuer: C=CN, ST=Beijing, L=Beijing, O=pynojo development team, CN=pynojo-ca/emailAddress=pynojo-discuss@googlegroups.com
        Validity
            Not Before: Mar  2 17:11:22 2012 GMT
            Not After : Feb 28 17:11:22 2022 GMT
        Subject: C=CN, ST=Beijing, L=Beijing, O=pynojo development team, CN=pynojo-server-9/emailAddress=pynojo-discuss@googlegroups.com
        Subject Public Key Info:
            Public Key Algorithm: rsaEncryption
                Public-Key: (1024 bit)
                Modulus:
                    00:ac:ed:23:b1:97:3c:b9:56:c0:45:60:9d:b5:03:
                    af:ed:b5:4e:5a:ec:da:1b:ca:c5:aa:b9:79:20:8b:
                    c9:70:e9:f0:be:b4:3b:ba:89:30:8f:91:3d:58:92:
                    1b:87:b0:82:26:4f:f7:23:91:93:7f:99:40:1f:45:
                    68:e1:d8:d4:84:7c:2f:59:bc:19:19:09:f5:94:71:
                    89:c6:de:75:05:79:cf:bd:23:cd:50:69:13:cb:f5:
                    43:4e:b3:3e:fa:3b:18:44:98:b0:72:bf:9a:0a:d9:
                    f7:57:ed:fa:ed:cc:a6:b9:3e:9f:fc:05:a3:23:96:
                    de:5b:a8:04:16:49:09:52:9f
                Exponent: 65537 (0x10001)
        X509v3 extensions:
            X509v3 Basic Constraints: 
                CA:FALSE
            Netscape Cert Type: 
                SSL Server
            Netscape Comment: 
                Easy-RSA Generated Server Certificate
            X509v3 Subject Key Identifier: 
                04:C7:15:1E:68:1B:7B:B2:0C:B1:D3:95:38:10:CE:C4:E7:92:3C:DA
            X509v3 Authority Key Identifier: 
                keyid:B5:7B:0F:15:76:78:35:93:0E:BE:25:87:86:BF:FE:D2:F2:4B:30:76
                DirName:/C=CN/ST=Beijing/L=Beijing/O=pynojo development team/CN=pynojo-ca/emailAddress=pynojo-discuss@googlegroups.com
                serial:9F:29:7C:7B:57:2B:04:E1

            X509v3 Extended Key Usage: 
                TLS Web Server Authentication
            X509v3 Key Usage: 
                Digital Signature, Key Encipherment
    Signature Algorithm: sha1WithRSAEncryption
        5d:c1:a5:4e:c4:92:5d:fe:2b:58:c5:0f:2f:62:eb:d4:d3:f1:
        13:24:eb:f1:cb:5e:26:98:ee:88:0e:f4:7f:a4:a5:f0:b3:83:
        5e:7e:d8:0c:09:a3:a0:85:05:1e:32:1f:17:d8:41:aa:a7:68:
        07:3c:d1:84:df:e4:e4:59:bf:b6:26:35:ae:47:28:a1:d9:91:
        3f:e4:53:f4:ed:6b:97:88:b8:71:3e:c5:5c:0b:a8:c3:a5:1c:
        ac:17:f7:9e:fd:9e:9b:f4:43:13:0a:07:06:d8:2c:93:24:98:
        34:7e:8d:9c:2e:7a:06:1d:35:80:9a:d1:9c:f6:63:3c:9a:3a:
        40:7a
-----BEGIN CERTIFICATE-----
MIIEFjCCA3+gAwIBAgIBCzANBgkqhkiG9w0BAQUFADCBlzELMAkGA1UEBhMCQ04x
EDAOBgNVBAgTB0JlaWppbmcxEDAOBgNVBAcTB0JlaWppbmcxIDAeBgNVBAoTF3B5
bm9qbyBkZXZlbG9wbWVudCB0ZWFtMRIwEAYDVQQDEwlweW5vam8tY2ExLjAsBgkq
hkiG9w0BCQEWH3B5bm9qby1kaXNjdXNzQGdvb2dsZWdyb3Vwcy5jb20wHhcNMTIw
MzAyMTcxMTIyWhcNMjIwMjI4MTcxMTIyWjCBnTELMAkGA1UEBhMCQ04xEDAOBgNV
BAgTB0JlaWppbmcxEDAOBgNVBAcTB0JlaWppbmcxIDAeBgNVBAoTF3B5bm9qbyBk
ZXZlbG9wbWVudCB0ZWFtMRgwFgYDVQQDEw9weW5vam8tc2VydmVyLTkxLjAsBgkq
hkiG9w0BCQEWH3B5bm9qby1kaXNjdXNzQGdvb2dsZWdyb3Vwcy5jb20wgZ8wDQYJ
KoZIhvcNAQEBBQADgY0AMIGJAoGBAKztI7GXPLlWwEVgnbUDr+21Tlrs2hvKxaq5
eSCLyXDp8L60O7qJMI+RPViSG4ewgiZP9yORk3+ZQB9FaOHY1IR8L1m8GRkJ9ZRx
icbedQV5z70jzVBpE8v1Q06zPvo7GESYsHK/mgrZ91ft+u3Mprk+n/wFoyOW3luo
BBZJCVKfAgMBAAGjggFoMIIBZDAJBgNVHRMEAjAAMBEGCWCGSAGG+EIBAQQEAwIG
QDA0BglghkgBhvhCAQ0EJxYlRWFzeS1SU0EgR2VuZXJhdGVkIFNlcnZlciBDZXJ0
aWZpY2F0ZTAdBgNVHQ4EFgQUBMcVHmgbe7IMsdOVOBDOxOeSPNowgcwGA1UdIwSB
xDCBwYAUtXsPFXZ4NZMOviWHhr/+0vJLMHahgZ2kgZowgZcxCzAJBgNVBAYTAkNO
MRAwDgYDVQQIEwdCZWlqaW5nMRAwDgYDVQQHEwdCZWlqaW5nMSAwHgYDVQQKExdw
eW5vam8gZGV2ZWxvcG1lbnQgdGVhbTESMBAGA1UEAxMJcHlub2pvLWNhMS4wLAYJ
KoZIhvcNAQkBFh9weW5vam8tZGlzY3Vzc0Bnb29nbGVncm91cHMuY29tggkAnyl8
e1crBOEwEwYDVR0lBAwwCgYIKwYBBQUHAwEwCwYDVR0PBAQDAgWgMA0GCSqGSIb3
DQEBBQUAA4GBAF3BpU7Ekl3+K1jFDy9i69TT8RMk6/HLXiaY7ogO9H+kpfCzg15+
2AwJo6CFBR4yHxfYQaqnaAc80YTf5ORZv7YmNa5HKKHZkT/kU/Tta5eIuHE+xVwL
qMOlHKwX9579npv0QxMKBwbYLJMkmDR+jZwuegYdNYCa0Zz2YzyaOkB6
-----END CERTIFICATE-----
